
 Start         Length     Name                   Class
 0001:00401000 0000082B4H _TEXT                  CODE
 0002:0040A000 0000025D4H _DATA                  DATA
 0003:0040C5D4 000003AA0H _BSS                   BSS
 0004:00000000 0000000A4H _TLS                   TLS


Detailed map of segments
 0001:00000000 00000236 C=CODE    S=_TEXT    G=(none)   M=C:\PROGRAM FILES\BORLAND\CBUILDER5\LIB\C0D32.OBJ ACBP=A9
 0001:00000236 0000000E C=CODE    S=_TEXT    G=(none)   M=D:\STASIEK\MY PROJECTS\OBSOLETE\PROGS\KOPEREK.VCL\LIB\DLLIO\DLLIO.OBJ ACBP=A9
 0001:00000244 000006FF C=CODE    S=_TEXT    G=(none)   M=D:\STASIEK\MY PROJECTS\OBSOLETE\PROGS\KOPEREK.VCL\LIB\DLLIO\TSOFT_IO.OBJ ACBP=A9
 0001:00000944 0000000F C=CODE    S=_TEXT    G=(none)   M=C:\PROGRAM FILES\BORLAND\CBUILDER5\LIB\CW32MT.LIB|del ACBP=A9
 0001:00000954 0000000F C=CODE    S=_TEXT    G=(none)   M=C:\PROGRAM FILES\BORLAND\CBUILDER5\LIB\CW32MT.LIB|delarray ACBP=A9
 0001:00000964 00000111 C=CODE    S=_TEXT    G=(none)   M=C:\PROGRAM FILES\BORLAND\CBUILDER5\LIB\CW32MT.LIB|virtmem ACBP=A9
 0001:00000A78 0000009F C=CODE    S=_TEXT    G=(none)   M=C:\PROGRAM FILES\BORLAND\CBUILDER5\LIB\CW32MT.LIB|hrdir_b ACBP=A9
 0001:00000B18 00000020 C=CODE    S=_TEXT    G=(none)   M=C:\PROGRAM FILES\BORLAND\CBUILDER5\LIB\CW32MT.LIB|hrdir_mf ACBP=A9
 0001:00000B38 000000B8 C=CODE    S=_TEXT    G=(none)   M=C:\PROGRAM FILES\BORLAND\CBUILDER5\LIB\CW32MT.LIB|hrdir_s ACBP=A9
 0001:00000BF0 00000001 C=CODE    S=_TEXT    G=(none)   M=C:\PROGRAM FILES\BORLAND\CBUILDER5\LIB\CW32MT.LIB|hrdir_us ACBP=A9
 0001:00000BF4 00000A30 C=CODE    S=_TEXT    G=(none)   M=C:\PROGRAM FILES\BORLAND\CBUILDER5\LIB\CW32MT.LIB|heap ACBP=A9
 0001:00001624 000002C2 C=CODE    S=_TEXT    G=(none)   M=C:\PROGRAM FILES\BORLAND\CBUILDER5\LIB\CW32MT.LIB|realloc ACBP=A9
 0001:000018E8 00000001 C=CODE    S=_TEXT    G=(none)   M=C:\PROGRAM FILES\BORLAND\CBUILDER5\LIB\CW32MT.LIB|crtlst_i ACBP=A9
 0001:000018EC 00000001 C=CODE    S=_TEXT    G=(none)   M=C:\PROGRAM FILES\BORLAND\CBUILDER5\LIB\CW32MT.LIB|crtlst_e ACBP=A9
 0001:000018F0 00000001 C=CODE    S=_TEXT    G=(none)   M=C:\PROGRAM FILES\BORLAND\CBUILDER5\LIB\CW32MT.LIB|crtlst_l ACBP=A9
 0001:000018F4 00000024 C=CODE    S=_TEXT    G=(none)   M=C:\PROGRAM FILES\BORLAND\CBUILDER5\LIB\CW32MT.LIB|memcpy ACBP=A9
 0001:00001918 0000004A C=CODE    S=_TEXT    G=(none)   M=C:\PROGRAM FILES\BORLAND\CBUILDER5\LIB\CW32MT.LIB|memmove ACBP=A9
 0001:00001964 0000008A C=CODE    S=_TEXT    G=(none)   M=C:\PROGRAM FILES\BORLAND\CBUILDER5\LIB\CW32MT.LIB|memset ACBP=A9
 0001:000019F0 00000018 C=CODE    S=_TEXT    G=(none)   M=C:\PROGRAM FILES\BORLAND\CBUILDER5\LIB\CW32MT.LIB|wmemset ACBP=A9
 0001:00001A08 0000003C C=CODE    S=_TEXT    G=(none)   M=C:\PROGRAM FILES\BORLAND\CBUILDER5\LIB\CW32MT.LIB|strcat ACBP=A9
 0001:00001A44 0000005A C=CODE    S=_TEXT    G=(none)   M=C:\PROGRAM FILES\BORLAND\CBUILDER5\LIB\CW32MT.LIB|strlen ACBP=A9
 0001:00001AA0 0000006E C=CODE    S=_TEXT    G=(none)   M=C:\PROGRAM FILES\BORLAND\CBUILDER5\LIB\CW32MT.LIB|strncat ACBP=A9
 0001:00001B10 0000006C C=CODE    S=_TEXT    G=(none)   M=C:\PROGRAM FILES\BORLAND\CBUILDER5\LIB\CW32MT.LIB|memcmp ACBP=A9
 0001:00001B7C 00000018 C=CODE    S=_TEXT    G=(none)   M=C:\PROGRAM FILES\BORLAND\CBUILDER5\LIB\CW32MT.LIB|wcslen ACBP=A9
 0001:00001B94 0000003F C=CODE    S=_TEXT    G=(none)   M=C:\PROGRAM FILES\BORLAND\CBUILDER5\LIB\CW32MT.LIB|wcscpy ACBP=A9
 0001:00001BD4 00000070 C=CODE    S=_TEXT    G=(none)   M=C:\PROGRAM FILES\BORLAND\CBUILDER5\LIB\CW32MT.LIB|xxa ACBP=A9
 0001:00001C44 00000778 C=CODE    S=_TEXT    G=(none)   M=C:\PROGRAM FILES\BORLAND\CBUILDER5\LIB\CW32MT.LIB|xxtype ACBP=A9
 0001:00002396 000000B6 C=CODE    S=_TEXT    G=(none)   M=C:\PROGRAM FILES\BORLAND\CBUILDER5\LIB\CW32MT.LIB|xxut ACBP=A9
 0001:00002438 0000014B C=CODE    S=_TEXT    G=(none)   M=C:\PROGRAM FILES\BORLAND\CBUILDER5\LIB\CW32MT.LIB|xxv ACBP=A9
 0001:00002584 0000000A C=CODE    S=_TEXT    G=(none)   M=C:\PROGRAM FILES\BORLAND\CBUILDER5\LIB\CW32MT.LIB|defhandl ACBP=A9
 0001:00002590 00000179 C=CODE    S=_TEXT    G=(none)   M=C:\PROGRAM FILES\BORLAND\CBUILDER5\LIB\CW32MT.LIB|except ACBP=A9
 0001:0000270C 00000046 C=CODE    S=_TEXT    G=(none)   M=C:\PROGRAM FILES\BORLAND\CBUILDER5\LIB\CW32MT.LIB|setexc ACBP=A9
 0001:00002754 00000022 C=CODE    S=_TEXT    G=(none)   M=C:\PROGRAM FILES\BORLAND\CBUILDER5\LIB\CW32MT.LIB|ta ACBP=A9
 0001:00002778 00000047 C=CODE    S=_TEXT    G=(none)   M=C:\PROGRAM FILES\BORLAND\CBUILDER5\LIB\CW32MT.LIB|__isatty ACBP=A9
 0001:000027C0 00000084 C=CODE    S=_TEXT    G=(none)   M=C:\PROGRAM FILES\BORLAND\CBUILDER5\LIB\CW32MT.LIB|__lseek ACBP=A9
 0001:00002844 00000132 C=CODE    S=_TEXT    G=(none)   M=C:\PROGRAM FILES\BORLAND\CBUILDER5\LIB\CW32MT.LIB|__write ACBP=A9
 0001:00002978 00000011 C=CODE    S=_TEXT    G=(none)   M=C:\PROGRAM FILES\BORLAND\CBUILDER5\LIB\CW32MT.LIB|_cfinfo ACBP=A9
 0001:0000298C 00000042 C=CODE    S=_TEXT    G=(none)   M=C:\PROGRAM FILES\BORLAND\CBUILDER5\LIB\CW32MT.LIB|_flshall ACBP=A9
 0001:000029D0 00000061 C=CODE    S=_TEXT    G=(none)   M=C:\PROGRAM FILES\BORLAND\CBUILDER5\LIB\CW32MT.LIB|_write ACBP=A9
 0001:00002A34 0000007D C=CODE    S=_TEXT    G=(none)   M=C:\PROGRAM FILES\BORLAND\CBUILDER5\LIB\CW32MT.LIB|allocbuf ACBP=A9
 0001:00002AB4 0000008F C=CODE    S=_TEXT    G=(none)   M=C:\PROGRAM FILES\BORLAND\CBUILDER5\LIB\CW32MT.LIB|fflush ACBP=A9
 0001:00002B44 00000064 C=CODE    S=_TEXT    G=(none)   M=C:\PROGRAM FILES\BORLAND\CBUILDER5\LIB\CW32MT.LIB|flushout ACBP=A9
 0001:00002BA8 00000023 C=CODE    S=_TEXT    G=(none)   M=C:\PROGRAM FILES\BORLAND\CBUILDER5\LIB\CW32MT.LIB|fmodeptr ACBP=A9
 0001:00002BCC 000003EB C=CODE    S=_TEXT    G=(none)   M=C:\PROGRAM FILES\BORLAND\CBUILDER5\LIB\CW32MT.LIB|handles ACBP=A9
 0001:00002FB8 0000008A C=CODE    S=_TEXT    G=(none)   M=C:\PROGRAM FILES\BORLAND\CBUILDER5\LIB\CW32MT.LIB|ioerror ACBP=A9
 0001:00003042 00000083 C=CODE    S=_TEXT    G=(none)   M=C:\PROGRAM FILES\BORLAND\CBUILDER5\LIB\CW32MT.LIB|perror ACBP=A9
 0001:00003044 00000270 C=CODE    S=_TEXT    G=(none)   M=C:\PROGRAM FILES\BORLAND\CBUILDER5\LIB\CW32MT.LIB|streams ACBP=A9
 0001:000032B4 00000031 C=CODE    S=_TEXT    G=(none)   M=C:\PROGRAM FILES\BORLAND\CBUILDER5\LIB\CW32MT.LIB|xfflush ACBP=A9
 0001:000032E8 00000051 C=CODE    S=_TEXT    G=(none)   M=C:\PROGRAM FILES\BORLAND\CBUILDER5\LIB\CW32MT.LIB|getinfo ACBP=A9
 0001:0000333C 00000102 C=CODE    S=_TEXT    G=(none)   M=C:\PROGRAM FILES\BORLAND\CBUILDER5\LIB\CW32MT.LIB|is ACBP=A9
 0001:00003440 00000103 C=CODE    S=_TEXT    G=(none)   M=C:\PROGRAM FILES\BORLAND\CBUILDER5\LIB\CW32MT.LIB|wis ACBP=A9
 0001:00003544 00000043 C=CODE    S=_TEXT    G=(none)   M=C:\PROGRAM FILES\BORLAND\CBUILDER5\LIB\CW32MT.LIB|isctype ACBP=A9
 0001:00003588 00000055 C=CODE    S=_TEXT    G=(none)   M=C:\PROGRAM FILES\BORLAND\CBUILDER5\LIB\CW32MT.LIB|iswctype ACBP=A9
 0001:000035E0 00000188 C=CODE    S=_TEXT    G=(none)   M=C:\PROGRAM FILES\BORLAND\CBUILDER5\LIB\CW32MT.LIB|_pow10 ACBP=A9
 0001:00003768 00000077 C=CODE    S=_TEXT    G=(none)   M=C:\PROGRAM FILES\BORLAND\CBUILDER5\LIB\CW32MT.LIB|atol ACBP=A9
 0001:000037E0 00000013 C=CODE    S=_TEXT    G=(none)   M=C:\PROGRAM FILES\BORLAND\CBUILDER5\LIB\CW32MT.LIB|clear87 ACBP=A9
 0001:000037F4 0000002F C=CODE    S=_TEXT    G=(none)   M=C:\PROGRAM FILES\BORLAND\CBUILDER5\LIB\CW32MT.LIB|ctrl87 ACBP=A9
 0001:00003824 00000018 C=CODE    S=_TEXT    G=(none)   M=C:\PROGRAM FILES\BORLAND\CBUILDER5\LIB\CW32MT.LIB|cvtfak ACBP=A9
 0001:0000383C 00000018 C=CODE    S=_TEXT    G=(none)   M=C:\PROGRAM FILES\BORLAND\CBUILDER5\LIB\CW32MT.LIB|cvtfakw ACBP=A9
 0001:00003854 00000016 C=CODE    S=_TEXT    G=(none)   M=C:\PROGRAM FILES\BORLAND\CBUILDER5\LIB\CW32MT.LIB|fpreset ACBP=A9
 0001:0000386C 0000002D C=CODE    S=_TEXT    G=(none)   M=C:\PROGRAM FILES\BORLAND\CBUILDER5\LIB\CW32MT.LIB|fuildq ACBP=A9
 0001:0000389C 00000021 C=CODE    S=_TEXT    G=(none)   M=C:\PROGRAM FILES\BORLAND\CBUILDER5\LIB\CW32MT.LIB|fuistq ACBP=A9
 0001:000038C0 00000011 C=CODE    S=_TEXT    G=(none)   M=C:\PROGRAM FILES\BORLAND\CBUILDER5\LIB\CW32MT.LIB|fxam ACBP=A9
 0001:000038D4 00000118 C=CODE    S=_TEXT    G=(none)   M=C:\PROGRAM FILES\BORLAND\CBUILDER5\LIB\CW32MT.LIB|ldtrunc ACBP=A9
 0001:000039EC 0000008F C=CODE    S=_TEXT    G=(none)   M=C:\PROGRAM FILES\BORLAND\CBUILDER5\LIB\CW32MT.LIB|longtoa ACBP=A9
 0001:00003A7C 00000075 C=CODE    S=_TEXT    G=(none)   M=C:\PROGRAM FILES\BORLAND\CBUILDER5\LIB\CW32MT.LIB|ltoa1 ACBP=A9
 0001:00003AF4 00000025 C=CODE    S=_TEXT    G=(none)   M=C:\PROGRAM FILES\BORLAND\CBUILDER5\LIB\CW32MT.LIB|qdiv10 ACBP=A9
 0001:00003B1C 0000002E C=CODE    S=_TEXT    G=(none)   M=C:\PROGRAM FILES\BORLAND\CBUILDER5\LIB\CW32MT.LIB|qmul10 ACBP=A9
 0001:00003B4C 000002F9 C=CODE    S=_TEXT    G=(none)   M=C:\PROGRAM FILES\BORLAND\CBUILDER5\LIB\CW32MT.LIB|realcvt ACBP=A9
 0001:00003E48 00000331 C=CODE    S=_TEXT    G=(none)   M=C:\PROGRAM FILES\BORLAND\CBUILDER5\LIB\CW32MT.LIB|realcvtw ACBP=A9
 0001:0000417C 000004E1 C=CODE    S=_TEXT    G=(none)   M=C:\PROGRAM FILES\BORLAND\CBUILDER5\LIB\CW32MT.LIB|scantod ACBP=A9
 0001:00004660 000004DD C=CODE    S=_TEXT    G=(none)   M=C:\PROGRAM FILES\BORLAND\CBUILDER5\LIB\CW32MT.LIB|scanwtod ACBP=A9
 0001:00004B40 000002D2 C=CODE    S=_TEXT    G=(none)   M=C:\PROGRAM FILES\BORLAND\CBUILDER5\LIB\CW32MT.LIB|xcvt ACBP=A9
 0001:00004E14 000002F1 C=CODE    S=_TEXT    G=(none)   M=C:\PROGRAM FILES\BORLAND\CBUILDER5\LIB\CW32MT.LIB|xcvtw ACBP=A9
 0001:00005108 00000139 C=CODE    S=_TEXT    G=(none)   M=C:\PROGRAM FILES\BORLAND\CBUILDER5\LIB\CW32MT.LIB|mbctype ACBP=A9
 0001:00005244 0000001A C=CODE    S=_TEXT    G=(none)   M=C:\PROGRAM FILES\BORLAND\CBUILDER5\LIB\CW32MT.LIB|mbisspc ACBP=A9
 0001:00005260 00000056 C=CODE    S=_TEXT    G=(none)   M=C:\PROGRAM FILES\BORLAND\CBUILDER5\LIB\CW32MT.LIB|mbsrchr ACBP=A9
 0001:000052B8 000000A6 C=CODE    S=_TEXT    G=(none)   M=C:\PROGRAM FILES\BORLAND\CBUILDER5\LIB\CW32MT.LIB|assert ACBP=A9
 0001:00005360 000000B8 C=CODE    S=_TEXT    G=(none)   M=C:\PROGRAM FILES\BORLAND\CBUILDER5\LIB\CW32MT.LIB|ermsghlp ACBP=A9
 0001:00005418 0000001E C=CODE    S=_TEXT    G=(none)   M=C:\PROGRAM FILES\BORLAND\CBUILDER5\LIB\CW32MT.LIB|errno ACBP=A9
 0001:00005438 0000019B C=CODE    S=_TEXT    G=(none)   M=C:\PROGRAM FILES\BORLAND\CBUILDER5\LIB\CW32MT.LIB|errormsg ACBP=A9
 0001:000055D4 00000089 C=CODE    S=_TEXT    G=(none)   M=C:\PROGRAM FILES\BORLAND\CBUILDER5\LIB\CW32MT.LIB|platform ACBP=A9
 0001:00005660 00000022 C=CODE    S=_TEXT    G=(none)   M=C:\PROGRAM FILES\BORLAND\CBUILDER5\LIB\CW32MT.LIB|abort ACBP=A9
 0001:00005684 000000BF C=CODE    S=_TEXT    G=(none)   M=C:\PROGRAM FILES\BORLAND\CBUILDER5\LIB\CW32MT.LIB|exit ACBP=A9
 0001:00005744 00000011 C=CODE    S=_TEXT    G=(none)   M=C:\PROGRAM FILES\BORLAND\CBUILDER5\LIB\CW32MT.LIB|exparg ACBP=A9
 0001:00005758 00000011 C=CODE    S=_TEXT    G=(none)   M=C:\PROGRAM FILES\BORLAND\CBUILDER5\LIB\CW32MT.LIB|wexparg ACBP=A9
 0001:0000576C 000001E5 C=CODE    S=_TEXT    G=(none)   M=C:\PROGRAM FILES\BORLAND\CBUILDER5\LIB\CW32MT.LIB|hsargv ACBP=A9
 0001:00005954 00000227 C=CODE    S=_TEXT    G=(none)   M=C:\PROGRAM FILES\BORLAND\CBUILDER5\LIB\CW32MT.LIB|whsargv ACBP=A9
 0001:00005B7C 00000388 C=CODE    S=_TEXT    G=(none)   M=C:\PROGRAM FILES\BORLAND\CBUILDER5\LIB\CW32MT.LIB|signal ACBP=A9
 0001:00005F04 0000018B C=CODE    S=_TEXT    G=(none)   M=C:\PROGRAM FILES\BORLAND\CBUILDER5\LIB\CW32MT.LIB|initexit ACBP=A9
 0001:00006090 000000FE C=CODE    S=_TEXT    G=(none)   M=C:\PROGRAM FILES\BORLAND\CBUILDER5\LIB\CW32MT.LIB|startupd ACBP=A9
 0001:00006190 000000F6 C=CODE    S=_TEXT    G=(none)   M=C:\PROGRAM FILES\BORLAND\CBUILDER5\LIB\CW32MT.LIB|dllx ACBP=A9
 0001:00006288 00000005 C=CODE    S=_TEXT    G=(none)   M=C:\PROGRAM FILES\BORLAND\CBUILDER5\LIB\CW32MT.LIB|dllstub ACBP=A9
 0001:00006290 00000067 C=CODE    S=_TEXT    G=(none)   M=C:\PROGRAM FILES\BORLAND\CBUILDER5\LIB\CW32MT.LIB|tls ACBP=A9
 0001:000062F8 0000004F C=CODE    S=_TEXT    G=(none)   M=C:\PROGRAM FILES\BORLAND\CBUILDER5\LIB\CW32MT.LIB|tlsstat ACBP=A9
 0001:00006348 000001C7 C=CODE    S=_TEXT    G=(none)   M=C:\PROGRAM FILES\BORLAND\CBUILDER5\LIB\CW32MT.LIB|thrddata ACBP=A9
 0001:00006510 000000D5 C=CODE    S=_TEXT    G=(none)   M=C:\PROGRAM FILES\BORLAND\CBUILDER5\LIB\CW32MT.LIB|_lock ACBP=A9
 0001:000065E8 00001BA2 C=CODE    S=_TEXT    G=(none)   M=C:\PROGRAM FILES\BORLAND\CBUILDER5\LIB\CW32MT.LIB|xx ACBP=A9
 0002:00000084 00000104 C=DATA    S=_DATA    G=DGROUP   M=C:\PROGRAM FILES\BORLAND\CBUILDER5\LIB\C0D32.OBJ ACBP=A9
 0002:00000188 00000010 C=DATA    S=_DATA    G=DGROUP   M=D:\STASIEK\MY PROJECTS\OBSOLETE\PROGS\KOPEREK.VCL\LIB\DLLIO\TSOFT_IO.OBJ ACBP=A9
 0002:00000188 00000004 C=DATA    S=_DATA    G=DGROUP   M=C:\PROGRAM FILES\BORLAND\CBUILDER5\LIB\CW32MT.LIB|virtmem ACBP=A9
 0002:0000018C 00000098 C=DATA    S=_DATA    G=DGROUP   M=C:\PROGRAM FILES\BORLAND\CBUILDER5\LIB\CW32MT.LIB|hrdir_b ACBP=A9
 0002:00000224 00000020 C=DATA    S=_DATA    G=DGROUP   M=C:\PROGRAM FILES\BORLAND\CBUILDER5\LIB\CW32MT.LIB|hrdir_s ACBP=A9
 0002:00000244 00000054 C=DATA    S=_DATA    G=DGROUP   M=C:\PROGRAM FILES\BORLAND\CBUILDER5\LIB\CW32MT.LIB|heap ACBP=A9
 0002:00000298 00000004 C=DATA    S=_DATA    G=DGROUP   M=C:\PROGRAM FILES\BORLAND\CBUILDER5\LIB\CW32MT.LIB|xx_xpf ACBP=A9
 0002:0000029C 00000330 C=DATA    S=_DATA    G=DGROUP   M=C:\PROGRAM FILES\BORLAND\CBUILDER5\LIB\CW32MT.LIB|xxtype ACBP=A9
 0002:000005BC 0000003C C=DATA    S=_DATA    G=DGROUP   M=C:\PROGRAM FILES\BORLAND\CBUILDER5\LIB\CW32MT.LIB|xxut ACBP=A9
 0002:000005F8 000000E4 C=DATA    S=_DATA    G=DGROUP   M=C:\PROGRAM FILES\BORLAND\CBUILDER5\LIB\CW32MT.LIB|xxv ACBP=A9
 0002:000006DC 00000014 C=DATA    S=_DATA    G=DGROUP   M=C:\PROGRAM FILES\BORLAND\CBUILDER5\LIB\CW32MT.LIB|except ACBP=A9
 0002:000006F0 00000004 C=DATA    S=_DATA    G=DGROUP   M=C:\PROGRAM FILES\BORLAND\CBUILDER5\LIB\CW32MT.LIB|_cfinfo ACBP=A9
 0002:000006F4 00000004 C=DATA    S=_DATA    G=DGROUP   M=C:\PROGRAM FILES\BORLAND\CBUILDER5\LIB\CW32MT.LIB|cfinfo ACBP=A9
 0002:000006F8 000004B0 C=DATA    S=_DATA    G=DGROUP   M=C:\PROGRAM FILES\BORLAND\CBUILDER5\LIB\CW32MT.LIB|files ACBP=A9
 0002:00000BA8 000000CC C=DATA    S=_DATA    G=DGROUP   M=C:\PROGRAM FILES\BORLAND\CBUILDER5\LIB\CW32MT.LIB|files2 ACBP=A9
 0002:00000C74 00000004 C=DATA    S=_DATA    G=DGROUP   M=C:\PROGRAM FILES\BORLAND\CBUILDER5\LIB\CW32MT.LIB|fmode ACBP=A9
 0002:00000C78 00000004 C=DATA    S=_DATA    G=DGROUP   M=C:\PROGRAM FILES\BORLAND\CBUILDER5\LIB\CW32MT.LIB|fmodeptr ACBP=A9
 0002:00000C7C 00000064 C=DATA    S=_DATA    G=DGROUP   M=C:\PROGRAM FILES\BORLAND\CBUILDER5\LIB\CW32MT.LIB|handles ACBP=A9
 0002:00000CE0 0000012B C=DATA    S=_DATA    G=DGROUP   M=C:\PROGRAM FILES\BORLAND\CBUILDER5\LIB\CW32MT.LIB|ioerror ACBP=A9
 0002:00000E0C 0000047C C=DATA    S=_DATA    G=DGROUP   M=C:\PROGRAM FILES\BORLAND\CBUILDER5\LIB\CW32MT.LIB|perror ACBP=A9
 0002:00001288 00000068 C=DATA    S=_DATA    G=DGROUP   M=C:\PROGRAM FILES\BORLAND\CBUILDER5\LIB\CW32MT.LIB|streams ACBP=A9
 0002:000012F0 00000202 C=DATA    S=_DATA    G=DGROUP   M=C:\PROGRAM FILES\BORLAND\CBUILDER5\LIB\CW32MT.LIB|bigctype ACBP=A9
 0002:000014F4 00000260 C=DATA    S=_DATA    G=DGROUP   M=C:\PROGRAM FILES\BORLAND\CBUILDER5\LIB\CW32MT.LIB|clocale ACBP=A9
 0002:00001754 000000C0 C=DATA    S=_DATA    G=DGROUP   M=C:\PROGRAM FILES\BORLAND\CBUILDER5\LIB\CW32MT.LIB|_pow10 ACBP=A9
 0002:00001814 00000068 C=DATA    S=_DATA    G=DGROUP   M=C:\PROGRAM FILES\BORLAND\CBUILDER5\LIB\CW32MT.LIB|cvtfak ACBP=A9
 0002:0000187C 00000068 C=DATA    S=_DATA    G=DGROUP   M=C:\PROGRAM FILES\BORLAND\CBUILDER5\LIB\CW32MT.LIB|cvtfakw ACBP=A9
 0002:000018E4 00000004 C=DATA    S=_DATA    G=DGROUP   M=C:\PROGRAM FILES\BORLAND\CBUILDER5\LIB\CW32MT.LIB|deflt87 ACBP=A9
 0002:000018E8 0000007C C=DATA    S=_DATA    G=DGROUP   M=C:\PROGRAM FILES\BORLAND\CBUILDER5\LIB\CW32MT.LIB|hugeval ACBP=A9
 0002:00001964 00000008 C=DATA    S=_DATA    G=DGROUP   M=C:\PROGRAM FILES\BORLAND\CBUILDER5\LIB\CW32MT.LIB|initcvt ACBP=A9
 0002:0000196C 00000014 C=DATA    S=_DATA    G=DGROUP   M=C:\PROGRAM FILES\BORLAND\CBUILDER5\LIB\CW32MT.LIB|realcvt ACBP=A9
 0002:00001980 00000028 C=DATA    S=_DATA    G=DGROUP   M=C:\PROGRAM FILES\BORLAND\CBUILDER5\LIB\CW32MT.LIB|realcvtw ACBP=A9
 0002:000019A8 00000028 C=DATA    S=_DATA    G=DGROUP   M=C:\PROGRAM FILES\BORLAND\CBUILDER5\LIB\CW32MT.LIB|scantod ACBP=A9
 0002:000019D0 00000028 C=DATA    S=_DATA    G=DGROUP   M=C:\PROGRAM FILES\BORLAND\CBUILDER5\LIB\CW32MT.LIB|scanwtod ACBP=A9
 0002:000019F8 00000048 C=DATA    S=_DATA    G=DGROUP   M=C:\PROGRAM FILES\BORLAND\CBUILDER5\LIB\CW32MT.LIB|mbctype ACBP=A9
 0002:00001A40 00000024 C=DATA    S=_DATA    G=DGROUP   M=C:\PROGRAM FILES\BORLAND\CBUILDER5\LIB\CW32MT.LIB|assert ACBP=A9
 0002:00001A64 00000024 C=DATA    S=_DATA    G=DGROUP   M=C:\PROGRAM FILES\BORLAND\CBUILDER5\LIB\CW32MT.LIB|ermsghlp ACBP=A9
 0002:00001A88 00000010 C=DATA    S=_DATA    G=DGROUP   M=C:\PROGRAM FILES\BORLAND\CBUILDER5\LIB\CW32MT.LIB|errormsg ACBP=A9
 0002:00001A98 00000028 C=DATA    S=_DATA    G=DGROUP   M=C:\PROGRAM FILES\BORLAND\CBUILDER5\LIB\CW32MT.LIB|platform ACBP=A9
 0002:00001AC0 00000020 C=DATA    S=_DATA    G=DGROUP   M=C:\PROGRAM FILES\BORLAND\CBUILDER5\LIB\CW32MT.LIB|abort ACBP=A9
 0002:00001AE0 00000004 C=DATA    S=_DATA    G=DGROUP   M=C:\PROGRAM FILES\BORLAND\CBUILDER5\LIB\CW32MT.LIB|patexit ACBP=A9
 0002:00001AE4 0000000C C=DATA    S=_DATA    G=DGROUP   M=C:\PROGRAM FILES\BORLAND\CBUILDER5\LIB\CW32MT.LIB|exit ACBP=A9
 0002:00001AF0 00000004 C=DATA    S=_DATA    G=DGROUP   M=C:\PROGRAM FILES\BORLAND\CBUILDER5\LIB\CW32MT.LIB|lonedll ACBP=A9
 0002:00001AF4 00000028 C=DATA    S=_DATA    G=DGROUP   M=C:\PROGRAM FILES\BORLAND\CBUILDER5\LIB\CW32MT.LIB|hsargv ACBP=A9
 0002:00001B1C 00000024 C=DATA    S=_DATA    G=DGROUP   M=C:\PROGRAM FILES\BORLAND\CBUILDER5\LIB\CW32MT.LIB|whsargv ACBP=A9
 0002:00001B40 00000004 C=DATA    S=_DATA    G=DGROUP   M=C:\PROGRAM FILES\BORLAND\CBUILDER5\LIB\CW32MT.LIB|wildptr ACBP=A9
 0002:00001B44 00000004 C=DATA    S=_DATA    G=DGROUP   M=C:\PROGRAM FILES\BORLAND\CBUILDER5\LIB\CW32MT.LIB|wwildptr ACBP=A9
 0002:00001B48 0000005E C=DATA    S=_DATA    G=DGROUP   M=C:\PROGRAM FILES\BORLAND\CBUILDER5\LIB\CW32MT.LIB|signal ACBP=A9
 0002:00001BA8 00000004 C=DATA    S=_DATA    G=DGROUP   M=C:\PROGRAM FILES\BORLAND\CBUILDER5\LIB\CW32MT.LIB|globals ACBP=A9
 0002:00001BAC 0000001C C=DATA    S=_DATA    G=DGROUP   M=C:\PROGRAM FILES\BORLAND\CBUILDER5\LIB\CW32MT.LIB|initexit ACBP=A9
 0002:00001BC8 00000150 C=DATA    S=_DATA    G=DGROUP   M=C:\PROGRAM FILES\BORLAND\CBUILDER5\LIB\CW32MT.LIB|dllx ACBP=A9
 0002:00001D18 0000001C C=DATA    S=_DATA    G=DGROUP   M=C:\PROGRAM FILES\BORLAND\CBUILDER5\LIB\CW32MT.LIB|thrddata ACBP=A9
 0002:00001D34 00000014 C=DATA    S=_DATA    G=DGROUP   M=C:\PROGRAM FILES\BORLAND\CBUILDER5\LIB\CW32MT.LIB|_lock ACBP=A9
 0002:00001D48 0000088C C=DATA    S=_DATA    G=DGROUP   M=C:\PROGRAM FILES\BORLAND\CBUILDER5\LIB\CW32MT.LIB|xx ACBP=A9
 0003:00000000 00000228 C=BSS     S=_BSS     G=DGROUP   M=D:\STASIEK\MY PROJECTS\OBSOLETE\PROGS\KOPEREK.VCL\LIB\DLLIO\TSOFT_IO.OBJ ACBP=A9
 0003:00000228 00000018 C=BSS     S=_BSS     G=DGROUP   M=C:\PROGRAM FILES\BORLAND\CBUILDER5\LIB\CW32MT.LIB|hrdir_b ACBP=A9
 0003:00000240 00000004 C=BSS     S=_BSS     G=DGROUP   M=C:\PROGRAM FILES\BORLAND\CBUILDER5\LIB\CW32MT.LIB|heap ACBP=A9
 0003:00000244 00000410 C=BSS     S=_BSS     G=DGROUP   M=C:\PROGRAM FILES\BORLAND\CBUILDER5\LIB\CW32MT.LIB|xxtype ACBP=A9
 0003:00000654 00000008 C=BSS     S=_BSS     G=DGROUP   M=C:\PROGRAM FILES\BORLAND\CBUILDER5\LIB\CW32MT.LIB|xxv ACBP=A9
 0003:0000065C 00000008 C=BSS     S=_BSS     G=DGROUP   M=C:\PROGRAM FILES\BORLAND\CBUILDER5\LIB\CW32MT.LIB|except ACBP=A9
 0003:00000664 00000190 C=BSS     S=_BSS     G=DGROUP   M=C:\PROGRAM FILES\BORLAND\CBUILDER5\LIB\CW32MT.LIB|files2 ACBP=A9
 0003:000007F4 00000008 C=BSS     S=_BSS     G=DGROUP   M=C:\PROGRAM FILES\BORLAND\CBUILDER5\LIB\CW32MT.LIB|handles ACBP=A9
 0003:000007FC 00000008 C=BSS     S=_BSS     G=DGROUP   M=C:\PROGRAM FILES\BORLAND\CBUILDER5\LIB\CW32MT.LIB|streams ACBP=A9
 0003:00000804 00000108 C=BSS     S=_BSS     G=DGROUP   M=C:\PROGRAM FILES\BORLAND\CBUILDER5\LIB\CW32MT.LIB|mbctype ACBP=A9
 0003:0000090C 00000100 C=BSS     S=_BSS     G=DGROUP   M=C:\PROGRAM FILES\BORLAND\CBUILDER5\LIB\CW32MT.LIB|assert ACBP=A9
 0003:00000A0C 00000019 C=BSS     S=_BSS     G=DGROUP   M=C:\PROGRAM FILES\BORLAND\CBUILDER5\LIB\CW32MT.LIB|ermsghlp ACBP=A9
 0003:00000A28 00000004 C=BSS     S=_BSS     G=DGROUP   M=C:\PROGRAM FILES\BORLAND\CBUILDER5\LIB\CW32MT.LIB|platform ACBP=A9
 0003:00000A2C 00000004 C=BSS     S=_BSS     G=DGROUP   M=C:\PROGRAM FILES\BORLAND\CBUILDER5\LIB\CW32MT.LIB|hsargv ACBP=A9
 0003:00000A30 00000004 C=BSS     S=_BSS     G=DGROUP   M=C:\PROGRAM FILES\BORLAND\CBUILDER5\LIB\CW32MT.LIB|whsargv ACBP=A9
 0003:00000A34 00000004 C=BSS     S=_BSS     G=DGROUP   M=C:\PROGRAM FILES\BORLAND\CBUILDER5\LIB\CW32MT.LIB|rawdll ACBP=A9
 0003:00000A38 00000044 C=BSS     S=_BSS     G=DGROUP   M=C:\PROGRAM FILES\BORLAND\CBUILDER5\LIB\CW32MT.LIB|globals ACBP=A9
 0003:00000A7C 00000004 C=BSS     S=_BSS     G=DGROUP   M=C:\PROGRAM FILES\BORLAND\CBUILDER5\LIB\CW32MT.LIB|startupd ACBP=A9
 0003:00000A80 00000004 C=BSS     S=_BSS     G=DGROUP   M=C:\PROGRAM FILES\BORLAND\CBUILDER5\LIB\CW32MT.LIB|dllx ACBP=A9
 0003:00000A84 00000008 C=BSS     S=_BSS     G=DGROUP   M=C:\PROGRAM FILES\BORLAND\CBUILDER5\LIB\CW32MT.LIB|thrddata ACBP=A9
 0003:00000A8C 00003004 C=BSS     S=_BSS     G=DGROUP   M=C:\PROGRAM FILES\BORLAND\CBUILDER5\LIB\CW32MT.LIB|_lock ACBP=A9
 0003:00003A90 00000010 C=BSS     S=_BSS     G=DGROUP   M=C:\PROGRAM FILES\BORLAND\CBUILDER5\LIB\CW32MT.LIB|xx ACBP=A9
 0004:00000000 0000009C C=TLS     S=_TLS     G=DGROUP   M=C:\PROGRAM FILES\BORLAND\CBUILDER5\LIB\CW32MT.LIB|xxv ACBP=A9
 0004:0000009C 00000008 C=TLS     S=_TLS     G=DGROUP   M=C:\PROGRAM FILES\BORLAND\CBUILDER5\LIB\CW32MT.LIB|tls ACBP=A9

  Address         Publics by Name

 0001:00000238      DllEntryPoint
 0001:00000202      Sysinit::__linkproc__ __fastcall GetTls()
 0002:00001604      _CLOCALE
 0002:000014F4      _CMonetary
 0002:00001528      _CNumeric
 0002:00001540      _CTimeDate
 0001:00006E14      _CatchCleanup()
 0001:00002398      _InitTermAndUnexPtrs()
 0001:00006C6D      _ReThrowException(unsigned int, unsigned char *)
 0001:00006C38      _ThrowExceptionLDTC(void *, void *, void *, void *, unsigned int, unsigned int, unsigned int, unsigned char *, void *)
 0003:00000A38      __C0argc
 0003:00000A3C      __C0argv
 0003:00000A40      __C0environ
 0001:00006224      __CRTL_DLLEntryPointWrapper
 0001:00008136      __CurrExcContext
 0003:00000654      __DestructorCountPtr
 0001:000055BC      __ErrorExit
 0001:00005490      __ErrorMessage
 0001:000053B0      __ErrorMessageHelper
 0003:00000A58      __ExcRegPtr
 0001:00002510      __ExceptInit
 0002:00000694      __ExceptVarsSize
 0001:00001C1B      __ExceptionHandler
 0001:00001C0D      __ExitExceptBlock
 0001:00000117      __GetExceptDLLinfo
 0001:0000255C      __GetExceptDLLinfoInternal
 0001:00006CD8      __Global_unwind
 0003:0000065C      __HandlerPtr
 0001:000026F8      __InitDefaultHander
 0001:00001BD4      __InitExceptBlockLDTC
 0001:00007344      __Local_unwind
 0002:00000180      __PackageInfoTable
 0001:00007357      __Return_unwind
 0001:0000270C      __SetExceptionHandler
 0001:000026AC      __SetUserHandler
 0002:00000103      __TLS_index
 0002:00000107      __TLS_index4
 0001:00002721      __UnsetExceptionHandler
 0001:0000274D      __UnwindException
 0003:00000660      __UserHandlerPtr
 0002:0000017C      ___CPPdebugHook
 0002:0000017C      ___CPPdebugHook_segment
 0002:000005F8      ___CPPexceptionList
 0001:00006288      ___CRTL_DLL_Lock
 0001:0000628C      ___CRTL_DLL_Unlock
 0001:00000B14      ___CRTL_MEM_CheckBorMem
 0001:00000A98      ___CRTL_MEM_GetBorMemPtrs
 0001:00000B38      ___CRTL_MEM_Revector
 0001:00000BF0      ___CRTL_MEM_UseBorMM
 0001:000062F8      ___CRTL_TLS_Alloc
 0001:0000633C      ___CRTL_TLS_ExitThread
 0001:00006300      ___CRTL_TLS_Free
 0001:00006344      ___CRTL_TLS_GetInfo
 0001:00006310      ___CRTL_TLS_GetValue
 0001:00006334      ___CRTL_TLS_InitThread
 0001:00006320      ___CRTL_TLS_SetValue
 0001:000018F0      ___CRTL_VCLLIB_Linkage
 0001:000018EC      ___CRTL_VCL_Exit
 0001:000018E8      ___CRTL_VCL_Init
 0001:00003010      ___DOSerror
 0001:00002584      ___DefHandler
 0001:000055AC      ___ErrorMessage
 0002:00000614      ___ExceptStaticXbuff
 0001:0000629C      ___GetStkIndex
 0001:00006290      ___GetTlsIndex
 0001:00002FC4      ___IOerror
 0001:00006613      ___JumpToCatch__
 0001:00003030      ___NTerror
 0001:00000202      ___System__GetTls
 0001:000073B8      ____ExceptionHandler
 0002:00000280      ___allocated
 0001:00002464      ___call_terminate
 0001:000024D8      ___call_unexpected
 0002:00001D48      ___debuggerDisableTerminateCallback
 0001:0000275A      ___doGlobalUnwind
 0001:00002FB8      ___doserrno
 0001:00005418      ___errno
 0002:000005FC      ___exceptFlags
 0002:00000610      ___exceptMemAllocVars
 0002:0000060C      ___exceptStaticBuffP
 0003:00000A64      ___exit_lock
 0002:0000192C      ___ieee_64_n_inf
 0002:0000193C      ___ieee_64_n_nanq
 0002:0000194C      ___ieee_64_n_nans
 0002:0000195C      ___ieee_64_n_zero
 0002:00001924      ___ieee_64_p_inf
 0002:00001934      ___ieee_64_p_nanq
 0002:00001944      ___ieee_64_p_nans
 0002:00001954      ___ieee_64_p_zero
 0002:00000101      ___isDLL
 0002:000000C8      ___isGUI
 0002:00000100      ___isVCLPackage
 0001:00002778      ___isatty
 0001:000027A8      ___isatty_osfhandle
 0001:00003544      ___isctype
 0001:00003588      ___iswctype
 0001:000038D4      ___ldtrunc
 0002:00001630      ___locale
 0001:000039EC      ___longtoa
 0001:000027C0      ___lseek
 0001:00001624      ___org__expand
 0001:000018CC      ___org__msize
 0001:000029D0      ___org__rtl_write
 0001:00002A18      ___org__write
 0001:000037D0      ___org_atoi
 0001:00003768      ___org_atol
 0001:00000944      ___org_delete
 0001:00000954      ___org_deletea
 0001:00002AB4      ___org_fflush
 0001:00000B28      ___org_free
 0001:00003A7C      ___org_itoa
 0001:00000B18      ___org_malloc
 0001:00001B10      ___org_memcmp
 0001:000018F4      ___org_memcpy
 0001:00001918      ___org_memmove
 0001:00001964      ___org_memset
 0001:00005E70      ___org_raise
 0001:00001A08      ___org_strcat
 0001:00001A44      ___org_strlen
 0001:00001AA0      ___org_strncat
 0001:00003AAC      ___org_ultoa
 0003:00003A94      ___pCPPdebugHook
 0002:00001AE0      ___pCallAtExitProcs
 0001:0000687D      ___raiseDebuggerException
 0002:000005BC      ___terminatePTR
 0002:00000608      ___throwExceptionName
 0002:00000600      ___throwFileName
 0002:00000604      ___throwLineNumber
 0002:000005C0      ___unexpectdPTR
 0002:00000102      ___useDynamicTLS
 0001:00003A60      ___utoa
 0001:00002844      ___write
 0001:00004B40      ___xcvt
 0001:00004E14      ___xcvtw
 0004:00000000      ___xxInfo
 0002:00000298      ___xxPersonality
 0001:00005660      __abort
 0001:00000000      __acrtused
 0001:0000231C      __adjustClassAdr(void *, tpid *, tpid *)
 0001:00002A34      __allocbuf
 0003:00000A4C      __argc
 0001:00005744      __argv_default_expand
 0002:00001B40      __argv_expand_ptr
 0001:00005300      __assert
 0003:00000228      __bormm_pfn_FreeMem
 0003:0000022C      __bormm_pfn_GetMem
 0003:00000234      __bormm_pfn_HeapAddRef
 0003:00000238      __bormm_pfn_HeapRelease
 0003:00000230      __bormm_pfn_ReallocMem
 0001:00005734      __c_exit
 0001:00005724      __cexit
 0002:000006F0      __cfinfo_get
 0002:000012F0      __chartype
 0002:000006A8      __chtbl__ __call_terminate()
 0002:000005C4      __chtbl__ std::terminate()
 0001:00005FF0      __cleanup
 0001:00002BDC      __cleanup_handle_locks
 0001:0000323C      __cleanup_stream_locks
 0001:000037E0      __clear87
 0002:00001AF4      __cmdline_escapes
 0001:000037F4      __control87
 0001:00006510      __create_lock
 0001:00005F14      __create_shmem
 0001:00003E30      __cvt_init
 0001:00004164      __cvt_initw
 0002:000018E4      __default87
 0003:00000A50      __dll_table
 0002:00000CE0      __dosErrorToSV
 0001:00002D2C      __dup_handle
 0002:000006C8      __ectbl__ __call_terminate()
 0002:000005E4      __ectbl__ std::terminate()
 0003:00000A70      __exe_table
 0001:0000570C      __exit
 0001:000026E4      __exit_except
 0001:00003114      __exit_streams
 0002:00001AE4      __exitbuf
 0002:00001AE8      __exitfopen
 0002:00001AEC      __exitopen
 0001:00001624      __expand
 0002:000006F4      __fileinfo
 0002:00000260      __firstHeap
 0002:00001968      __floatconvert
 0001:0000298C      __flushall
 0001:00002B44      __flushout
 0002:00000C74      __fmode
 0002:00000C78      __fmodeptr
 0001:00003854      __fpreset
 0002:0000026C      __freeStart
 0001:00002D94      __free_handle
 0001:00000BE0      __free_heaps
 0001:0000386C      __fuildq
 0001:0000389C      __fuistq
 0001:000038C0      __fxam
 0001:00000124      __getHInstance
 0001:000032E8      __getLocaleNumericInfo
 0001:00002CEC      __get_handle
 0001:0000522C      __getmbcp
 0002:0000010B      __hInstance
 0001:000058C4      __handle_exitargv
 0001:0000576C      __handle_setargv
 0001:00005AE8      __handle_wexitargv
 0001:00005954      __handle_wsetargv
 0003:0000072C      __handles
 0003:00000240      __heap_lock
 0002:00000228      __heap_redirector
 0002:000018EC      __huge_dble
 0002:000018E8      __huge_flt
 0002:000018F4      __huge_ldble
 0002:00001914      __indefinite
 0001:00005234      __initMBCSTable
 0001:000026CC      __init_except
 0001:00005F1C      __init_exit_proc
 0001:00002E4C      __init_handles
 0001:00000BF4      __init_lock
 0001:00003044      __init_streams
 0001:000062A8      __init_tls
 0001:00002BB8      __initfileinfo
 0001:00002BA8      __initfmode
 0001:0000120C      __internal_free
 0001:000015C4      __internal_free_heaps
 0001:00001388      __internal_malloc
 0001:0000182C      __internal_realloc
 0001:0000220C      __isCompatTypeID(tpid *, tpid *, int, tpid * *)
 0001:0000011C      __isDLL
 0001:00002130      __isSameTypeID(tpid *, tpid *)
 0002:00001BA8      __isWindows
 0001:00005244      __ismbcspace
 0002:000019F8      __kalpha
 0002:000019FA      __kpunct
 0002:00000264      __lastHeap
 0002:00000268      __linktable
 0001:00002BCC      __lock_all_handles
 0001:00003178      __lock_all_streams
 0001:00006594      __lock_error
 0001:0000605C      __lock_exit
 0001:00002C10      __lock_handle
 0001:00000C08      __lock_heap
 0001:00006574      __lock_nt
 0001:00003198      __lock_stream
 0001:00003ACC      __ltoa
 0002:00001902      __max_dble
 0002:000018FE      __max_flt
 0002:0000190A      __max_ldble
 0003:00000908      __mbcsCodePage
 0003:00000804      __mbctype
 0001:00005260      __mbsrchr
 0002:00001A8C      __messagefile
 0002:00001A88      __messagefunc
 0001:000018CC      __msize
 0002:00001AF0      __multidll
 0002:00001818      __nextrealptr
 0002:00001880      __nextrealwptr
 0002:00000BA8      __nfile
 0002:00000250      __nv_heap_size
 0002:00000BAC      __openfd
 0003:00000A44      __oscmd
 0003:00000A48      __osenv
 0003:00000A28      __ostype
 0003:00000A34      __pRawDllMain
 0001:000015AC      __phys_avail
 0003:00000664      __pidtab
 0001:000035E0      __pow10
 0001:00003AF4      __qdiv10
 0001:00003B1C      __qmul10
 0002:00001814      __realcvtptr
 0002:0000187C      __realcvtwptr
 0002:00000278      __rover
 0001:000029D0      __rtl_write
 0001:00004648      __scan_init
 0001:00004B28      __scan_initw
 0002:00001820      __scanrsltptr
 0002:0000181C      __scantodptr
 0002:00001888      __scanwrsltptr
 0002:00001884      __scanwtodptr
 0001:00002680      __setexc
 0001:00005108      __setmbcp
 0002:00000254      __smalloc_threshold
 0001:00006090      __startupd
 0001:00000350      __stdcall strnEql(char *, const char *, long)
 0001:0000036C      __stdcall strnMov(char *, const char *, long)
 0003:00000A78      __stkbase
 0002:000006DC      __stkchk
 0004:0000009C      __stkindex
 0002:000006F8      __streams
 0002:00000E0C      __sys_errlist
 0002:00000ED0      __sys_nerr
 0001:00005F04      __terminate
 0001:00006348      __thread_data
 0001:00006418      __thread_data_del
 0001:00006370      __thread_data_new
 0002:00001918      __tiny_ldble
 0004:000000A0      __tlsindex
 0002:00001964      __turboFloat
 0001:000020F8      __typeIDname(tpid *)
 0001:00002C00      __unlock_all_handles
 0001:00003188      __unlock_all_streams
 0001:0000606C      __unlock_exit
 0001:00002CA4      __unlock_handle
 0001:00000C18      __unlock_heap
 0001:00006584      __unlock_nt
 0001:00003260      __unlock_stream
 0001:0000269C      __unsetexc
 0001:000026C0      __unsetuserhandler
 0002:00000258      __virt_chunk_free
 0002:0000025C      __virt_chunk_free2
 0002:00000248      __virt_chunk_size
 0002:0000024C      __virt_chunk_size2
 0002:00000244      __virt_heap_size
 0003:00000A68      __wC0argv
 0003:00000A6C      __wC0environ
 0001:00005758      __wargv_default_expand
 0002:00001B44      __wargv_expand_ptr
 0001:000019F0      __wmemset
 0003:00000A60      __woscmd
 0003:00000A5C      __wosenv
 0001:00002A18      __write
 0001:000032B4      __xfflush
 0001:00005674      _abort
 0001:000037D0      _atoi
 0001:00003768      _atol
 0001:000056F4      _exit
 0001:00002AB4      _fflush
 0001:00000B28      _free
 0001:0000333C      _isalnum
 0001:00003368      _isalpha
 0001:00003354      _isascii
 0001:00003380      _iscntrl
 0001:00003394      _isdigit
 0001:000033A8      _isgraph
 0001:000033C0      _islower
 0001:000033D4      _isprint
 0001:000033EC      _ispunct
 0001:00003400      _isspace
 0001:00003414      _isupper
 0001:00003440      _iswalnum
 0001:0000346C      _iswalpha
 0001:00003458      _iswascii
 0001:00003484      _iswcntrl
 0001:00003498      _iswdigit
 0001:000034AC      _iswgraph
 0001:000034C4      _iswlower
 0001:000034D8      _iswprint
 0001:000034F0      _iswpunct
 0001:00003504      _iswspace
 0001:00003518      _iswupper
 0001:0000352C      _iswxdigit
 0001:00003428      _isxdigit
 0001:00003A7C      _itoa
 0001:00000B18      _malloc
 0001:00001B10      _memcmp
 0001:000018F4      _memcpy
 0001:00001918      _memmove
 0001:00001964      _memset
 0001:00005E70      _raise
 0001:00005DBC      _signal
 0001:00001A08      _strcat
 0001:00001A44      _strlen
 0001:00001AA0      _strncat
 0001:00003AAC      _ultoa
 0001:000009D0      _virt_alloc
 0001:000009F8      _virt_commit
 0001:00000A44      _virt_decommit
 0001:00000A5C      _virt_release
 0001:00000964      _virt_reserve
 0001:00001B94      _wcscpy
 0001:00001B7C      _wcslen
 0003:00000804      b1433_2
 0003:0000090C      b1569_2
 0003:00000A0C      b1585_2
 0003:00000A28      b1597_2
 0003:00000A2C      b1681_2
 0003:00000A30      b1683_2
 0003:00000A34      b1775_0
 0003:00000A38      b1777_1
 0003:00000A7C      b1785_1
 0003:00000A80      b1789_2
 0003:00000A84      b1801_2
 0003:00000A8C      b1807_2
 0003:00003A90      b1885_2
 0003:00000228      b205_2
 0003:00000240      b221_2
 0003:00000000      b3_2
 0003:00000244      b519_2
 0003:00000654      b523_2
 0003:0000065C      b529_2
 0003:00000664      b719_1
 0003:000007F4      b793_2
 0003:000007FC      b895_2
 0001:00000934      bitEql
 0001:0000093C      bitSet
 0001:000032B4      c1001_0
 0001:000032E8      c1023_0
 0001:0000333C      c1031_0
 0001:00003440      c1033_0
 0001:00003544      c1035_0
 0001:00003588      c1037_0
 0001:000035E0      c1173_0
 0001:00003768      c1197_0
 0001:000037E0      c1209_0
 0001:000037F4      c1223_0
 0001:00003824      c1229_0
 0001:0000383C      c1231_0
 0001:00003854      c1271_0
 0001:0000386C      c1279_0
 0001:0000389C      c1281_0
 0001:000038C0      c1283_0
 0001:000038D4      c1309_0
 0001:000039EC      c1319_0
 0001:00003A7C      c1327_0
 0001:00003AF4      c1357_0
 0001:00003B1C      c1359_0
 0001:00003B4C      c1363_0
 0001:00003E48      c1365_0
 0001:0000417C      c1373_0
 0001:00004660      c1375_0
 0001:00004B40      c1419_0
 0001:00004E14      c1421_0
 0001:00005108      c1433_0
 0001:00005234      c1433_3
 0001:00005244      c1455_0
 0001:00005260      c1517_0
 0001:000052B8      c1569_0
 0001:00005360      c1585_0
 0001:00005418      c1587_0
 0001:00005438      c1589_0
 0001:000055D4      c1597_0
 0001:000055D4      c1597_3
 0001:00005660      c1617_0
 0001:00005684      c1655_0
 0001:00005744      c1665_0
 0001:00005758      c1667_0
 0001:0000576C      c1681_0
 0001:00005954      c1683_0
 0001:00005B7C      c1759_0
 0001:00000944      c175_0
 0001:00005F04      c1779_0
 0001:0000607C      c1779_2
 0001:00000954      c177_0
 0001:00006090      c1785_0
 0001:00006190      c1789_0
 0001:00006288      c1791_0
 0001:00006290      c1793_0
 0001:000062A8      c1793_2
 0001:000062F8      c1795_0
 0001:00006348      c1801_0
 0001:0000644C      c1801_3
 0001:00006460      c1801_4
 0001:00006510      c1807_0
 0001:000065D0      c1807_3
 0001:000065E8      c1885_0
 0001:000065E8      c1885_3
 0001:00000000      c1_0
 0001:00000964      c203_0
 0001:00000A78      c205_0
 0001:00000B18      c211_0
 0001:00000B38      c215_0
 0001:00000BD4      c215_2
 0001:00000BF0      c217_0
 0001:00000BF4      c221_0
 0001:00000BF4      c221_3
 0001:00001624      c241_0
 0001:000018E8      c243_0
 0001:000018EC      c245_0
 0001:000018F0      c247_0
 0001:000018F4      c391_0
 0001:00001918      c395_0
 0001:00001964      c397_0
 0001:000019F0      c399_0
 0001:00001A08      c413_0
 0001:00001A44      c421_0
 0001:00001AA0      c423_0
 0001:00001B10      c439_0
 0001:00001B7C      c473_0
 0001:00001B94      c475_0
 0001:00001BD4      c515_0
 0001:00001C44      c519_0
 0001:00001D9B      c519_3
 0001:00002438      c523_0
 0001:00002438      c523_4
 0001:00002584      c525_0
 0001:00002590      c529_0
 0001:000026CC      c529_3
 0001:000026E4      c529_4
 0001:0000270C      c533_0
 0001:00002754      c535_0
 0001:00002778      c551_0
 0001:000027C0      c553_0
 0001:00002844      c563_0
 0001:00002978      c565_0
 0001:0000298C      c583_0
 0001:000029D0      c639_0
 0001:00002A34      c643_0
 0001:00002AB4      c705_0
 0001:00002B44      c727_0
 0001:00002BA8      c731_0
 0001:00002BCC      c793_0
 0001:00002FB8      c795_0
 0001:00003044      c895_0
 0001:00003114      c895_3
 0002:000012F0      d1011_0
 0002:000014F4      d1041_0
 0002:00001754      d1173_1
 0002:00001814      d1229_1
 0002:0000187C      d1231_1
 0002:000018E4      d1233_0
 0002:000018E8      d1287_0
 0002:00001964      d1297_0
 0002:0000196C      d1363_1
 0002:00001980      d1365_1
 0002:000019A8      d1373_1
 0002:000019D0      d1375_1
 0002:000019F8      d1433_1
 0002:00001A40      d1569_1
 0002:00001A64      d1585_1
 0002:00001A88      d1589_1
 0002:00001A98      d1597_1
 0002:00001AC0      d1617_1
 0002:00001AE0      d1619_0
 0002:00001AE4      d1655_1
 0002:00001AF0      d1661_0
 0002:00001AF4      d1681_1
 0002:00001B1C      d1683_1
 0002:00001B40      d1737_0
 0002:00001B44      d1739_0
 0002:00001B48      d1759_1
 0002:00001BA8      d1777_0
 0002:00001BAC      d1779_1
 0002:00001BC8      d1789_1
 0002:00001D18      d1801_1
 0002:00001D34      d1807_1
 0002:00001D48      d1885_1
 0002:00000084      d1_1
 0002:00000188      d203_1
 0002:0000018C      d205_1
 0002:00000224      d215_1
 0002:00000244      d221_1
 0002:00000298      d517_0
 0002:0000029C      d519_1
 0002:000005BC      d521_1
 0002:000005F8      d523_1
 0002:000006DC      d529_1
 0002:000006F0      d565_1
 0002:000006F4      d645_0
 0002:000006F8      d717_0
 0002:00000BA8      d719_0
 0002:00000C74      d729_0
 0002:00000C78      d731_1
 0002:00000C7C      d793_1
 0002:00000CE0      d795_1
 0002:00000E0C      d827_1
 0002:00001288      d895_1
 0001:00000754      intToStr
 0001:0000276F      invokeHnd()
 0001:00002754      jump()
 0001:00000944      operator delete(void *)
 0001:00000954      operator delete[](void *)
 0001:00000784      ptrAlloc
 0001:00000800      ptrChr
 0001:000007F8      ptrCmp
 0001:000007C0      ptrEql
 0001:00000890      ptrFnd
 0001:00000808      ptrFndLast
 0001:000007B0      ptrFree
 0001:000007D0      ptrMov
 0001:00000798      ptrReAlloc
 0001:000007C8      ptrRev
 0001:000007D8      ptrSet
 0001:000007E0      ptrSetEx
 0001:000007E8      ptrShl
 0001:000007F0      ptrShr
 0001:000023C0      std::terminate()
 0001:00002410      std::unexpected()
 0001:00000388      strAdd
 0001:00000244      strAlloc
 0001:00000258      strAllocEx
 0001:00000404      strDel
 0001:00000444      strDelEnd
 0001:000004F8      strDelimiter
 0001:000002BC      strDup
 0001:00000308      strEql
 0001:00000558      strExchange
 0001:000005C8      strExchangeChar
 0001:000006A0      strExtractFileName
 0001:00000650      strExtractFilePath
 0001:00000600      strExtractFileRoot
 0001:000006F8      strFixFilePath
 0001:000002AC      strFree
 0001:000003A0      strInsert
 0001:00000300      strLen
 0001:0000032C      strMov
 0001:00000484      strPos
 0001:00000274      strReAlloc
 0001:0000028C      strReAllocEx
 0001:000002DC      strReDup
 0001:000004A0      strSub
 0001:000004C8      strSubEnd
 0001:00000770      strToInt
 0004:0000009C      t1793_1
 0004:00000000      t523_3

  Address         Publics by Value

 0001:00000000      c1_0
 0001:00000000      __acrtused
 0001:00000117      __GetExceptDLLinfo
 0001:0000011C      __isDLL
 0001:00000124      __getHInstance
 0001:00000202      Sysinit::__linkproc__ __fastcall GetTls()
 0001:00000202      ___System__GetTls
 0001:00000238      DllEntryPoint
 0001:00000244      strAlloc
 0001:00000258      strAllocEx
 0001:00000274      strReAlloc
 0001:0000028C      strReAllocEx
 0001:000002AC      strFree
 0001:000002BC      strDup
 0001:000002DC      strReDup
 0001:00000300      strLen
 0001:00000308      strEql
 0001:0000032C      strMov
 0001:00000350      __stdcall strnEql(char *, const char *, long)
 0001:0000036C      __stdcall strnMov(char *, const char *, long)
 0001:00000388      strAdd
 0001:000003A0      strInsert
 0001:00000404      strDel
 0001:00000444      strDelEnd
 0001:00000484      strPos
 0001:000004A0      strSub
 0001:000004C8      strSubEnd
 0001:000004F8      strDelimiter
 0001:00000558      strExchange
 0001:000005C8      strExchangeChar
 0001:00000600      strExtractFileRoot
 0001:00000650      strExtractFilePath
 0001:000006A0      strExtractFileName
 0001:000006F8      strFixFilePath
 0001:00000754      intToStr
 0001:00000770      strToInt
 0001:00000784      ptrAlloc
 0001:00000798      ptrReAlloc
 0001:000007B0      ptrFree
 0001:000007C0      ptrEql
 0001:000007C8      ptrRev
 0001:000007D0      ptrMov
 0001:000007D8      ptrSet
 0001:000007E0      ptrSetEx
 0001:000007E8      ptrShl
 0001:000007F0      ptrShr
 0001:000007F8      ptrCmp
 0001:00000800      ptrChr
 0001:00000808      ptrFndLast
 0001:00000890      ptrFnd
 0001:00000934      bitEql
 0001:0000093C      bitSet
 0001:00000944      ___org_delete
 0001:00000944      operator delete(void *)
 0001:00000944      c175_0
 0001:00000954      c177_0
 0001:00000954      operator delete[](void *)
 0001:00000954      ___org_deletea
 0001:00000964      _virt_reserve
 0001:00000964      c203_0
 0001:000009D0      _virt_alloc
 0001:000009F8      _virt_commit
 0001:00000A44      _virt_decommit
 0001:00000A5C      _virt_release
 0001:00000A78      c205_0
 0001:00000A98      ___CRTL_MEM_GetBorMemPtrs
 0001:00000B14      ___CRTL_MEM_CheckBorMem
 0001:00000B18      ___org_malloc
 0001:00000B18      _malloc
 0001:00000B18      c211_0
 0001:00000B28      _free
 0001:00000B28      ___org_free
 0001:00000B38      ___CRTL_MEM_Revector
 0001:00000B38      c215_0
 0001:00000BD4      c215_2
 0001:00000BE0      __free_heaps
 0001:00000BF0      ___CRTL_MEM_UseBorMM
 0001:00000BF0      c217_0
 0001:00000BF4      c221_3
 0001:00000BF4      c221_0
 0001:00000BF4      __init_lock
 0001:00000C08      __lock_heap
 0001:00000C18      __unlock_heap
 0001:0000120C      __internal_free
 0001:00001388      __internal_malloc
 0001:000015AC      __phys_avail
 0001:000015C4      __internal_free_heaps
 0001:00001624      ___org__expand
 0001:00001624      __expand
 0001:00001624      c241_0
 0001:0000182C      __internal_realloc
 0001:000018CC      __msize
 0001:000018CC      ___org__msize
 0001:000018E8      c243_0
 0001:000018E8      ___CRTL_VCL_Init
 0001:000018EC      ___CRTL_VCL_Exit
 0001:000018EC      c245_0
 0001:000018F0      c247_0
 0001:000018F0      ___CRTL_VCLLIB_Linkage
 0001:000018F4      c391_0
 0001:000018F4      _memcpy
 0001:000018F4      ___org_memcpy
 0001:00001918      ___org_memmove
 0001:00001918      _memmove
 0001:00001918      c395_0
 0001:00001964      c397_0
 0001:00001964      ___org_memset
 0001:00001964      _memset
 0001:000019F0      __wmemset
 0001:000019F0      c399_0
 0001:00001A08      ___org_strcat
 0001:00001A08      _strcat
 0001:00001A08      c413_0
 0001:00001A44      _strlen
 0001:00001A44      c421_0
 0001:00001A44      ___org_strlen
 0001:00001AA0      ___org_strncat
 0001:00001AA0      _strncat
 0001:00001AA0      c423_0
 0001:00001B10      c439_0
 0001:00001B10      ___org_memcmp
 0001:00001B10      _memcmp
 0001:00001B7C      _wcslen
 0001:00001B7C      c473_0
 0001:00001B94      _wcscpy
 0001:00001B94      c475_0
 0001:00001BD4      c515_0
 0001:00001BD4      __InitExceptBlockLDTC
 0001:00001C0D      __ExitExceptBlock
 0001:00001C1B      __ExceptionHandler
 0001:00001C44      c519_0
 0001:00001D9B      c519_3
 0001:000020F8      __typeIDname(tpid *)
 0001:00002130      __isSameTypeID(tpid *, tpid *)
 0001:0000220C      __isCompatTypeID(tpid *, tpid *, int, tpid * *)
 0001:0000231C      __adjustClassAdr(void *, tpid *, tpid *)
 0001:00002398      _InitTermAndUnexPtrs()
 0001:000023C0      std::terminate()
 0001:00002410      std::unexpected()
 0001:00002438      c523_0
 0001:00002438      c523_4
 0001:00002464      ___call_terminate
 0001:000024D8      ___call_unexpected
 0001:00002510      __ExceptInit
 0001:0000255C      __GetExceptDLLinfoInternal
 0001:00002584      ___DefHandler
 0001:00002584      c525_0
 0001:00002590      c529_0
 0001:00002680      __setexc
 0001:0000269C      __unsetexc
 0001:000026AC      __SetUserHandler
 0001:000026C0      __unsetuserhandler
 0001:000026CC      __init_except
 0001:000026CC      c529_3
 0001:000026E4      c529_4
 0001:000026E4      __exit_except
 0001:000026F8      __InitDefaultHander
 0001:0000270C      __SetExceptionHandler
 0001:0000270C      c533_0
 0001:00002721      __UnsetExceptionHandler
 0001:0000274D      __UnwindException
 0001:00002754      c535_0
 0001:00002754      jump()
 0001:0000275A      ___doGlobalUnwind
 0001:0000276F      invokeHnd()
 0001:00002778      ___isatty
 0001:00002778      c551_0
 0001:000027A8      ___isatty_osfhandle
 0001:000027C0      c553_0
 0001:000027C0      ___lseek
 0001:00002844      c563_0
 0001:00002844      ___write
 0001:00002978      c565_0
 0001:0000298C      c583_0
 0001:0000298C      __flushall
 0001:000029D0      ___org__rtl_write
 0001:000029D0      __rtl_write
 0001:000029D0      c639_0
 0001:00002A18      ___org__write
 0001:00002A18      __write
 0001:00002A34      __allocbuf
 0001:00002A34      c643_0
 0001:00002AB4      ___org_fflush
 0001:00002AB4      c705_0
 0001:00002AB4      _fflush
 0001:00002B44      __flushout
 0001:00002B44      c727_0
 0001:00002BA8      __initfmode
 0001:00002BA8      c731_0
 0001:00002BB8      __initfileinfo
 0001:00002BCC      c793_0
 0001:00002BCC      __lock_all_handles
 0001:00002BDC      __cleanup_handle_locks
 0001:00002C00      __unlock_all_handles
 0001:00002C10      __lock_handle
 0001:00002CA4      __unlock_handle
 0001:00002CEC      __get_handle
 0001:00002D2C      __dup_handle
 0001:00002D94      __free_handle
 0001:00002E4C      __init_handles
 0001:00002FB8      c795_0
 0001:00002FB8      ___doserrno
 0001:00002FC4      ___IOerror
 0001:00003010      ___DOSerror
 0001:00003030      ___NTerror
 0001:00003044      c895_0
 0001:00003044      __init_streams
 0001:00003114      __exit_streams
 0001:00003114      c895_3
 0001:00003178      __lock_all_streams
 0001:00003188      __unlock_all_streams
 0001:00003198      __lock_stream
 0001:0000323C      __cleanup_stream_locks
 0001:00003260      __unlock_stream
 0001:000032B4      __xfflush
 0001:000032B4      c1001_0
 0001:000032E8      __getLocaleNumericInfo
 0001:000032E8      c1023_0
 0001:0000333C      _isalnum
 0001:0000333C      c1031_0
 0001:00003354      _isascii
 0001:00003368      _isalpha
 0001:00003380      _iscntrl
 0001:00003394      _isdigit
 0001:000033A8      _isgraph
 0001:000033C0      _islower
 0001:000033D4      _isprint
 0001:000033EC      _ispunct
 0001:00003400      _isspace
 0001:00003414      _isupper
 0001:00003428      _isxdigit
 0001:00003440      _iswalnum
 0001:00003440      c1033_0
 0001:00003458      _iswascii
 0001:0000346C      _iswalpha
 0001:00003484      _iswcntrl
 0001:00003498      _iswdigit
 0001:000034AC      _iswgraph
 0001:000034C4      _iswlower
 0001:000034D8      _iswprint
 0001:000034F0      _iswpunct
 0001:00003504      _iswspace
 0001:00003518      _iswupper
 0001:0000352C      _iswxdigit
 0001:00003544      c1035_0
 0001:00003544      ___isctype
 0001:00003588      c1037_0
 0001:00003588      ___iswctype
 0001:000035E0      __pow10
 0001:000035E0      c1173_0
 0001:00003768      ___org_atol
 0001:00003768      _atol
 0001:00003768      c1197_0
 0001:000037D0      ___org_atoi
 0001:000037D0      _atoi
 0001:000037E0      __clear87
 0001:000037E0      c1209_0
 0001:000037F4      __control87
 0001:000037F4      c1223_0
 0001:00003824      c1229_0
 0001:0000383C      c1231_0
 0001:00003854      c1271_0
 0001:00003854      __fpreset
 0001:0000386C      c1279_0
 0001:0000386C      __fuildq
 0001:0000389C      c1281_0
 0001:0000389C      __fuistq
 0001:000038C0      c1283_0
 0001:000038C0      __fxam
 0001:000038D4      ___ldtrunc
 0001:000038D4      c1309_0
 0001:000039EC      c1319_0
 0001:000039EC      ___longtoa
 0001:00003A60      ___utoa
 0001:00003A7C      _itoa
 0001:00003A7C      ___org_itoa
 0001:00003A7C      c1327_0
 0001:00003AAC      ___org_ultoa
 0001:00003AAC      _ultoa
 0001:00003ACC      __ltoa
 0001:00003AF4      c1357_0
 0001:00003AF4      __qdiv10
 0001:00003B1C      __qmul10
 0001:00003B1C      c1359_0
 0001:00003B4C      c1363_0
 0001:00003E30      __cvt_init
 0001:00003E48      c1365_0
 0001:00004164      __cvt_initw
 0001:0000417C      c1373_0
 0001:00004648      __scan_init
 0001:00004660      c1375_0
 0001:00004B28      __scan_initw
 0001:00004B40      ___xcvt
 0001:00004B40      c1419_0
 0001:00004E14      ___xcvtw
 0001:00004E14      c1421_0
 0001:00005108      __setmbcp
 0001:00005108      c1433_0
 0001:0000522C      __getmbcp
 0001:00005234      __initMBCSTable
 0001:00005234      c1433_3
 0001:00005244      c1455_0
 0001:00005244      __ismbcspace
 0001:00005260      __mbsrchr
 0001:00005260      c1517_0
 0001:000052B8      c1569_0
 0001:00005300      __assert
 0001:00005360      c1585_0
 0001:000053B0      __ErrorMessageHelper
 0001:00005418      c1587_0
 0001:00005418      ___errno
 0001:00005438      c1589_0
 0001:00005490      __ErrorMessage
 0001:000055AC      ___ErrorMessage
 0001:000055BC      __ErrorExit
 0001:000055D4      c1597_0
 0001:000055D4      c1597_3
 0001:00005660      c1617_0
 0001:00005660      __abort
 0001:00005674      _abort
 0001:00005684      c1655_0
 0001:000056F4      _exit
 0001:0000570C      __exit
 0001:00005724      __cexit
 0001:00005734      __c_exit
 0001:00005744      c1665_0
 0001:00005744      __argv_default_expand
 0001:00005758      __wargv_default_expand
 0001:00005758      c1667_0
 0001:0000576C      c1681_0
 0001:0000576C      __handle_setargv
 0001:000058C4      __handle_exitargv
 0001:00005954      c1683_0
 0001:00005954      __handle_wsetargv
 0001:00005AE8      __handle_wexitargv
 0001:00005B7C      c1759_0
 0001:00005DBC      _signal
 0001:00005E70      ___org_raise
 0001:00005E70      _raise
 0001:00005F04      __terminate
 0001:00005F04      c1779_0
 0001:00005F14      __create_shmem
 0001:00005F1C      __init_exit_proc
 0001:00005FF0      __cleanup
 0001:0000605C      __lock_exit
 0001:0000606C      __unlock_exit
 0001:0000607C      c1779_2
 0001:00006090      __startupd
 0001:00006090      c1785_0
 0001:00006190      c1789_0
 0001:00006224      __CRTL_DLLEntryPointWrapper
 0001:00006288      c1791_0
 0001:00006288      ___CRTL_DLL_Lock
 0001:0000628C      ___CRTL_DLL_Unlock
 0001:00006290      ___GetTlsIndex
 0001:00006290      c1793_0
 0001:0000629C      ___GetStkIndex
 0001:000062A8      __init_tls
 0001:000062A8      c1793_2
 0001:000062F8      ___CRTL_TLS_Alloc
 0001:000062F8      c1795_0
 0001:00006300      ___CRTL_TLS_Free
 0001:00006310      ___CRTL_TLS_GetValue
 0001:00006320      ___CRTL_TLS_SetValue
 0001:00006334      ___CRTL_TLS_InitThread
 0001:0000633C      ___CRTL_TLS_ExitThread
 0001:00006344      ___CRTL_TLS_GetInfo
 0001:00006348      __thread_data
 0001:00006348      c1801_0
 0001:00006370      __thread_data_new
 0001:00006418      __thread_data_del
 0001:0000644C      c1801_3
 0001:00006460      c1801_4
 0001:00006510      c1807_0
 0001:00006510      __create_lock
 0001:00006574      __lock_nt
 0001:00006584      __unlock_nt
 0001:00006594      __lock_error
 0001:000065D0      c1807_3
 0001:000065E8      c1885_3
 0001:000065E8      c1885_0
 0001:00006613      ___JumpToCatch__
 0001:0000687D      ___raiseDebuggerException
 0001:00006C38      _ThrowExceptionLDTC(void *, void *, void *, void *, unsigned int, unsigned int, unsigned int, unsigned char *, void *)
 0001:00006C6D      _ReThrowException(unsigned int, unsigned char *)
 0001:00006CD8      __Global_unwind
 0001:00006E14      _CatchCleanup()
 0001:00007344      __Local_unwind
 0001:00007357      __Return_unwind
 0001:000073B8      ____ExceptionHandler
 0001:00008136      __CurrExcContext
 0002:00000084      d1_1
 0002:000000C8      ___isGUI
 0002:00000100      ___isVCLPackage
 0002:00000101      ___isDLL
 0002:00000102      ___useDynamicTLS
 0002:00000103      __TLS_index
 0002:00000107      __TLS_index4
 0002:0000010B      __hInstance
 0002:0000017C      ___CPPdebugHook
 0002:0000017C      ___CPPdebugHook_segment
 0002:00000180      __PackageInfoTable
 0002:00000188      d203_1
 0002:0000018C      d205_1
 0002:00000224      d215_1
 0002:00000228      __heap_redirector
 0002:00000244      d221_1
 0002:00000244      __virt_heap_size
 0002:00000248      __virt_chunk_size
 0002:0000024C      __virt_chunk_size2
 0002:00000250      __nv_heap_size
 0002:00000254      __smalloc_threshold
 0002:00000258      __virt_chunk_free
 0002:0000025C      __virt_chunk_free2
 0002:00000260      __firstHeap
 0002:00000264      __lastHeap
 0002:00000268      __linktable
 0002:0000026C      __freeStart
 0002:00000278      __rover
 0002:00000280      ___allocated
 0002:00000298      ___xxPersonality
 0002:00000298      d517_0
 0002:0000029C      d519_1
 0002:000005BC      d521_1
 0002:000005BC      ___terminatePTR
 0002:000005C0      ___unexpectdPTR
 0002:000005C4      __chtbl__ std::terminate()
 0002:000005E4      __ectbl__ std::terminate()
 0002:000005F8      d523_1
 0002:000005F8      ___CPPexceptionList
 0002:000005FC      ___exceptFlags
 0002:00000600      ___throwFileName
 0002:00000604      ___throwLineNumber
 0002:00000608      ___throwExceptionName
 0002:0000060C      ___exceptStaticBuffP
 0002:00000610      ___exceptMemAllocVars
 0002:00000614      ___ExceptStaticXbuff
 0002:00000694      __ExceptVarsSize
 0002:000006A8      __chtbl__ __call_terminate()
 0002:000006C8      __ectbl__ __call_terminate()
 0002:000006DC      d529_1
 0002:000006DC      __stkchk
 0002:000006F0      d565_1
 0002:000006F0      __cfinfo_get
 0002:000006F4      __fileinfo
 0002:000006F4      d645_0
 0002:000006F8      __streams
 0002:000006F8      d717_0
 0002:00000BA8      __nfile
 0002:00000BA8      d719_0
 0002:00000BAC      __openfd
 0002:00000C74      d729_0
 0002:00000C74      __fmode
 0002:00000C78      __fmodeptr
 0002:00000C78      d731_1
 0002:00000C7C      d793_1
 0002:00000CE0      d795_1
 0002:00000CE0      __dosErrorToSV
 0002:00000E0C      __sys_errlist
 0002:00000E0C      d827_1
 0002:00000ED0      __sys_nerr
 0002:00001288      d895_1
 0002:000012F0      d1011_0
 0002:000012F0      __chartype
 0002:000014F4      _CMonetary
 0002:000014F4      d1041_0
 0002:00001528      _CNumeric
 0002:00001540      _CTimeDate
 0002:00001604      _CLOCALE
 0002:00001630      ___locale
 0002:00001754      d1173_1
 0002:00001814      __realcvtptr
 0002:00001814      d1229_1
 0002:00001818      __nextrealptr
 0002:0000181C      __scantodptr
 0002:00001820      __scanrsltptr
 0002:0000187C      __realcvtwptr
 0002:0000187C      d1231_1
 0002:00001880      __nextrealwptr
 0002:00001884      __scanwtodptr
 0002:00001888      __scanwrsltptr
 0002:000018E4      d1233_0
 0002:000018E4      __default87
 0002:000018E8      __huge_flt
 0002:000018E8      d1287_0
 0002:000018EC      __huge_dble
 0002:000018F4      __huge_ldble
 0002:000018FE      __max_flt
 0002:00001902      __max_dble
 0002:0000190A      __max_ldble
 0002:00001914      __indefinite
 0002:00001918      __tiny_ldble
 0002:00001924      ___ieee_64_p_inf
 0002:0000192C      ___ieee_64_n_inf
 0002:00001934      ___ieee_64_p_nanq
 0002:0000193C      ___ieee_64_n_nanq
 0002:00001944      ___ieee_64_p_nans
 0002:0000194C      ___ieee_64_n_nans
 0002:00001954      ___ieee_64_p_zero
 0002:0000195C      ___ieee_64_n_zero
 0002:00001964      d1297_0
 0002:00001964      __turboFloat
 0002:00001968      __floatconvert
 0002:0000196C      d1363_1
 0002:00001980      d1365_1
 0002:000019A8      d1373_1
 0002:000019D0      d1375_1
 0002:000019F8      d1433_1
 0002:000019F8      __kalpha
 0002:000019FA      __kpunct
 0002:00001A40      d1569_1
 0002:00001A64      d1585_1
 0002:00001A88      __messagefunc
 0002:00001A88      d1589_1
 0002:00001A8C      __messagefile
 0002:00001A98      d1597_1
 0002:00001AC0      d1617_1
 0002:00001AE0      d1619_0
 0002:00001AE0      ___pCallAtExitProcs
 0002:00001AE4      d1655_1
 0002:00001AE4      __exitbuf
 0002:00001AE8      __exitfopen
 0002:00001AEC      __exitopen
 0002:00001AF0      __multidll
 0002:00001AF0      d1661_0
 0002:00001AF4      __cmdline_escapes
 0002:00001AF4      d1681_1
 0002:00001B1C      d1683_1
 0002:00001B40      d1737_0
 0002:00001B40      __argv_expand_ptr
 0002:00001B44      d1739_0
 0002:00001B44      __wargv_expand_ptr
 0002:00001B48      d1759_1
 0002:00001BA8      d1777_0
 0002:00001BA8      __isWindows
 0002:00001BAC      d1779_1
 0002:00001BC8      d1789_1
 0002:00001D18      d1801_1
 0002:00001D34      d1807_1
 0002:00001D48      d1885_1
 0002:00001D48      ___debuggerDisableTerminateCallback
 0003:00000000      b3_2
 0003:00000228      b205_2
 0003:00000228      __bormm_pfn_FreeMem
 0003:0000022C      __bormm_pfn_GetMem
 0003:00000230      __bormm_pfn_ReallocMem
 0003:00000234      __bormm_pfn_HeapAddRef
 0003:00000238      __bormm_pfn_HeapRelease
 0003:00000240      b221_2
 0003:00000240      __heap_lock
 0003:00000244      b519_2
 0003:00000654      __DestructorCountPtr
 0003:00000654      b523_2
 0003:0000065C      b529_2
 0003:0000065C      __HandlerPtr
 0003:00000660      __UserHandlerPtr
 0003:00000664      __pidtab
 0003:00000664      b719_1
 0003:0000072C      __handles
 0003:000007F4      b793_2
 0003:000007FC      b895_2
 0003:00000804      __mbctype
 0003:00000804      b1433_2
 0003:00000908      __mbcsCodePage
 0003:0000090C      b1569_2
 0003:00000A0C      b1585_2
 0003:00000A28      b1597_2
 0003:00000A28      __ostype
 0003:00000A2C      b1681_2
 0003:00000A30      b1683_2
 0003:00000A34      __pRawDllMain
 0003:00000A34      b1775_0
 0003:00000A38      b1777_1
 0003:00000A38      __C0argc
 0003:00000A3C      __C0argv
 0003:00000A40      __C0environ
 0003:00000A44      __oscmd
 0003:00000A48      __osenv
 0003:00000A4C      __argc
 0003:00000A50      __dll_table
 0003:00000A58      __ExcRegPtr
 0003:00000A5C      __wosenv
 0003:00000A60      __woscmd
 0003:00000A64      ___exit_lock
 0003:00000A68      __wC0argv
 0003:00000A6C      __wC0environ
 0003:00000A70      __exe_table
 0003:00000A78      __stkbase
 0003:00000A7C      b1785_1
 0003:00000A80      b1789_2
 0003:00000A84      b1801_2
 0003:00000A8C      b1807_2
 0003:00003A90      b1885_2
 0003:00003A94      ___pCPPdebugHook
 0004:00000000      ___xxInfo
 0004:00000000      t523_3
 0004:0000009C      t1793_1
 0004:0000009C      __stkindex
 0004:000000A0      __tlsindex
